ARM GAS  C:\Users\VIKRAM~1\AppData\Local\Temp\ccBtXCz7.s 			page 1


   1              		.syntax unified
   2              		.cpu cortex-m3
   3              		.fpu softvfp
   4              		.eabi_attribute 20, 1
   5              		.eabi_attribute 21, 1
   6              		.eabi_attribute 23, 3
   7              		.eabi_attribute 24, 1
   8              		.eabi_attribute 25, 1
   9              		.eabi_attribute 26, 1
  10              		.eabi_attribute 30, 1
  11              		.eabi_attribute 34, 1
  12              		.eabi_attribute 18, 4
  13              		.thumb
  14              		.syntax unified
  15              		.file	"watchdog_timer.c"
  16              		.text
  17              	.Ltext0:
  18              		.cfi_sections	.debug_frame
  19              		.section	.text.WD_Start,"ax",%progbits
  20              		.align	2
  21              		.global	WD_Start
  22              		.thumb
  23              		.thumb_func
  24              		.type	WD_Start, %function
  25              	WD_Start:
  26              	.LFB111:
  27              		.file 1 "watchdog_timer.c"
   1:watchdog_timer.c **** /* ========================================
   2:watchdog_timer.c ****  *
   3:watchdog_timer.c ****  * Copyright YOUR COMPANY, THE YEAR
   4:watchdog_timer.c ****  * All Rights Reserved
   5:watchdog_timer.c ****  * UNPUBLISHED, LICENSED SOFTWARE.
   6:watchdog_timer.c ****  *
   7:watchdog_timer.c ****  * CONFIDENTIAL AND PROPRIETARY INFORMATION
   8:watchdog_timer.c ****  * WHICH IS THE PROPERTY OF your company.
   9:watchdog_timer.c ****  *
  10:watchdog_timer.c ****  * ========================================
  11:watchdog_timer.c **** */
  12:watchdog_timer.c **** 
  13:watchdog_timer.c **** /* [] END OF FILE */
  14:watchdog_timer.c **** 
  15:watchdog_timer.c **** # include "watchdog_timer.h"
  16:watchdog_timer.c **** # include "stdio.h"
  17:watchdog_timer.c **** static volatile uint32_t wd_aliveBits = 0;
  18:watchdog_timer.c **** #define WD_EXPECTED_ALIVE_MASK 0xF  // e.g., 0b00001111 => 4 runnables
  19:watchdog_timer.c **** /**
  20:watchdog_timer.c **** * Activate the Watchdog Trigger
  21:watchdog_timer.c **** * \param WDT_TimeOut_t timeout - [IN] Timeout Period
  22:watchdog_timer.c **** * @return RC_SUCCESS
  23:watchdog_timer.c **** */
  24:watchdog_timer.c **** RC_t WD_Start(WDT_TimeOut_t timeout)
  25:watchdog_timer.c **** {
  28              		.loc 1 25 0
  29              		.cfi_startproc
  30              		@ args = 0, pretend = 0, frame = 0
  31              		@ frame_needed = 0, uses_anonymous_args = 0
  32              	.LVL0:
ARM GAS  C:\Users\VIKRAM~1\AppData\Local\Temp\ccBtXCz7.s 			page 2


  33 0000 08B5     		push	{r3, lr}
  34              		.cfi_def_cfa_offset 8
  35              		.cfi_offset 3, -8
  36              		.cfi_offset 14, -4
  26:watchdog_timer.c ****     CyWdtStart(timeout,CYWDT_LPMODE_NOCHANGE);
  37              		.loc 1 26 0
  38 0002 0021     		movs	r1, #0
  39 0004 FFF7FEFF 		bl	CyWdtStart
  40              	.LVL1:
  27:watchdog_timer.c ****     return RC_SUCCESS;   
  28:watchdog_timer.c **** }
  41              		.loc 1 28 0
  42 0008 0020     		movs	r0, #0
  43 000a 08BD     		pop	{r3, pc}
  44              		.cfi_endproc
  45              	.LFE111:
  46              		.size	WD_Start, .-WD_Start
  47              		.section	.text.WD_Trigger,"ax",%progbits
  48              		.align	2
  49              		.global	WD_Trigger
  50              		.thumb
  51              		.thumb_func
  52              		.type	WD_Trigger, %function
  53              	WD_Trigger:
  54              	.LFB112:
  29:watchdog_timer.c **** 
  30:watchdog_timer.c **** /**
  31:watchdog_timer.c **** * Service the Watchdog Trigger
  32:watchdog_timer.c **** * @return RC_SUCCESS
  33:watchdog_timer.c **** */
  34:watchdog_timer.c **** RC_t WD_Trigger()
  35:watchdog_timer.c **** {
  55              		.loc 1 35 0
  56              		.cfi_startproc
  57              		@ args = 0, pretend = 0, frame = 0
  58              		@ frame_needed = 0, uses_anonymous_args = 0
  59 0000 08B5     		push	{r3, lr}
  60              		.cfi_def_cfa_offset 8
  61              		.cfi_offset 3, -8
  62              		.cfi_offset 14, -4
  36:watchdog_timer.c ****     if((wd_aliveBits & WD_EXPECTED_ALIVE_MASK)==0xF)
  63              		.loc 1 36 0
  64 0002 064B     		ldr	r3, .L6
  65 0004 1B68     		ldr	r3, [r3]
  66 0006 03F00F03 		and	r3, r3, #15
  67 000a 0F2B     		cmp	r3, #15
  68 000c 04D1     		bne	.L4
  37:watchdog_timer.c ****     {
  38:watchdog_timer.c ****         CyWdtClear();
  69              		.loc 1 38 0
  70 000e FFF7FEFF 		bl	CyWdtClear
  71              	.LVL2:
  39:watchdog_timer.c ****         wd_aliveBits=0;
  72              		.loc 1 39 0
  73 0012 0022     		movs	r2, #0
  74 0014 014B     		ldr	r3, .L6
  75 0016 1A60     		str	r2, [r3]
ARM GAS  C:\Users\VIKRAM~1\AppData\Local\Temp\ccBtXCz7.s 			page 3


  76              	.L4:
  40:watchdog_timer.c ****         //UART_LOG_PutString("Watchdog is Feed and Alive..... Resetting bits\r\n");
  41:watchdog_timer.c ****     }
  42:watchdog_timer.c ****     return RC_SUCCESS;
  43:watchdog_timer.c **** }
  77              		.loc 1 43 0
  78 0018 0020     		movs	r0, #0
  79 001a 08BD     		pop	{r3, pc}
  80              	.L7:
  81              		.align	2
  82              	.L6:
  83 001c 00000000 		.word	.LANCHOR0
  84              		.cfi_endproc
  85              	.LFE112:
  86              		.size	WD_Trigger, .-WD_Trigger
  87              		.section	.text.WD_CheckResetBit,"ax",%progbits
  88              		.align	2
  89              		.global	WD_CheckResetBit
  90              		.thumb
  91              		.thumb_func
  92              		.type	WD_CheckResetBit, %function
  93              	WD_CheckResetBit:
  94              	.LFB113:
  44:watchdog_timer.c **** 
  45:watchdog_timer.c **** /**
  46:watchdog_timer.c **** * Checks the watchdog bit
  47:watchdog_timer.c **** * @return TRUE if watchdog reset bit was set
  48:watchdog_timer.c **** */
  49:watchdog_timer.c **** boolean_t WD_CheckResetBit()
  50:watchdog_timer.c **** {
  95              		.loc 1 50 0
  96              		.cfi_startproc
  97              		@ args = 0, pretend = 0, frame = 0
  98              		@ frame_needed = 0, uses_anonymous_args = 0
  99              		@ link register save eliminated.
  51:watchdog_timer.c ****     if(CyResetStatus & CY_RESET_WD)
 100              		.loc 1 51 0
 101 0000 044B     		ldr	r3, .L10
 102 0002 1B78     		ldrb	r3, [r3]	@ zero_extendqisi2
 103 0004 03F00803 		and	r3, r3, #8
 104 0008 03F0FF00 		and	r0, r3, #255
 105 000c 03B1     		cbz	r3, .L9
  52:watchdog_timer.c ****         return TRUE;
 106              		.loc 1 52 0
 107 000e 0120     		movs	r0, #1
 108              	.L9:
  53:watchdog_timer.c ****     else
  54:watchdog_timer.c ****         return FALSE;
  55:watchdog_timer.c **** }
 109              		.loc 1 55 0
 110 0010 7047     		bx	lr
 111              	.L11:
 112 0012 00BF     		.align	2
 113              	.L10:
 114 0014 00000000 		.word	CyResetStatus
 115              		.cfi_endproc
 116              	.LFE113:
ARM GAS  C:\Users\VIKRAM~1\AppData\Local\Temp\ccBtXCz7.s 			page 4


 117              		.size	WD_CheckResetBit, .-WD_CheckResetBit
 118              		.section	.text.WD_Alive,"ax",%progbits
 119              		.align	2
 120              		.global	WD_Alive
 121              		.thumb
 122              		.thumb_func
 123              		.type	WD_Alive, %function
 124              	WD_Alive:
 125              	.LFB114:
  56:watchdog_timer.c **** 
  57:watchdog_timer.c **** /**
  58:watchdog_timer.c **** * Checks the watchdog Alive state
  59:watchdog_timer.c **** * @return RC_SUCCESS
  60:watchdog_timer.c **** **/
  61:watchdog_timer.c **** /*
  62:watchdog_timer.c ****     Let say joystick runnable sends alive bit i.e. myBitPosition = 0
  63:watchdog_timer.c ****     Initial value of WD_RunnableAliveBitField = 0000 0000
  64:watchdog_timer.c ****     left shift 1U by 0 i.e. 0000 0001 <<0 ==> 0000 0001
  65:watchdog_timer.c ****     Bitwise OR between (1U << myBitPositon) and WD_RunnableAliveBitField ==> 0000 0001
  66:watchdog_timer.c ****     so for second runnable ==> 0000 0011
  67:watchdog_timer.c ****     Third runnable ==> 0000 0111
  68:watchdog_timer.c ****     Fourth runnable ==> 0000 1111
  69:watchdog_timer.c **** */
  70:watchdog_timer.c **** RC_t WD_Alive(uint8_t myBitPosition)
  71:watchdog_timer.c **** {
 126              		.loc 1 71 0
 127              		.cfi_startproc
 128              		@ args = 0, pretend = 0, frame = 0
 129              		@ frame_needed = 0, uses_anonymous_args = 0
 130              		@ link register save eliminated.
 131              	.LVL3:
  72:watchdog_timer.c ****     wd_aliveBits |= (1UL << myBitPosition);
 132              		.loc 1 72 0
 133 0000 0123     		movs	r3, #1
 134 0002 03FA00F0 		lsl	r0, r3, r0
 135              	.LVL4:
 136 0006 034A     		ldr	r2, .L13
 137 0008 1368     		ldr	r3, [r2]
 138 000a 1843     		orrs	r0, r0, r3
 139 000c 1060     		str	r0, [r2]
  73:watchdog_timer.c ****     return RC_SUCCESS;
  74:watchdog_timer.c **** }...
 140              		.loc 1 74 0
 141 000e 0020     		movs	r0, #0
 142 0010 7047     		bx	lr
 143              	.L14:
 144 0012 00BF     		.align	2
 145              	.L13:
 146 0014 00000000 		.word	.LANCHOR0
 147              		.cfi_endproc
 148              	.LFE114:
 149              		.size	WD_Alive, .-WD_Alive
 150              		.bss
 151              		.align	2
 152              		.set	.LANCHOR0,. + 0
 153              		.type	wd_aliveBits, %object
 154              		.size	wd_aliveBits, 4
ARM GAS  C:\Users\VIKRAM~1\AppData\Local\Temp\ccBtXCz7.s 			page 5


 155              	wd_aliveBits:
 156 0000 00000000 		.space	4
 157              		.text
 158              	.Letext0:
 159              		.file 2 "c:\\program files (x86)\\cypress\\psoc creator\\4.4\\psoc creator\\import\\gnu\\arm\\5.4.
 160              		.file 3 "c:\\program files (x86)\\cypress\\psoc creator\\4.4\\psoc creator\\import\\gnu\\arm\\5.4.
 161              		.file 4 "Generated_Source\\PSoC5/cytypes.h"
 162              		.file 5 "Generated_Source\\PSoC5/ErikaOS_1_common_ee_types.inc"
 163              		.file 6 "Generated_Source\\PSoC5/ErikaOS_1_cortex_mx_ee_cpu.inc"
 164              		.file 7 ".\\source\\bsw/global.h"
 165              		.file 8 "watchdog_timer.h"
 166              		.file 9 "Generated_Source\\PSoC5/ErikaOS_1_ee_oo_intfunc.inc"
 167              		.file 10 "Generated_Source\\PSoC5/ErikaOS_1_cortex_mx_ee_context.inc"
 168              		.file 11 "Generated_Source\\PSoC5/ErikaOS_1_common_ee_primitives.inc"
 169              		.file 12 "Generated_Source\\PSoC5/CyLib.h"
 170              		.file 13 "Generated_Source\\PSoC5/core_cm3.h"